target datalayout = "e-m:e-p270:32:32-p271:32:32-p272:64:64-i64:64-i128:128-f80:128-n8:16:32:64-S128"
target triple = "x86_64-pc-linux-gnu"

%struct.evp_pkey_ctx_st = type { i32, ptr, ptr, ptr, ptr, %union.anon, %struct.anon.4, ptr, ptr, ptr, i32, i32, ptr, ptr, ptr, ptr, ptr, i8, ptr }
%union.anon = type { %struct.anon.0 }
%struct.anon.0 = type { ptr, ptr }
%struct.anon.4 = type { ptr, ptr, i64, i8 }

; Function Attrs: nounwind uwtable
define i32 @EVP_PKEY_CTX_ctrl_str(ptr noundef %0, ptr noundef %1, ptr noundef %2) #0 {
  %4 = alloca i32, align 4
  %5 = alloca ptr, align 8
  %6 = alloca ptr, align 8
  %7 = alloca ptr, align 8
  %8 = alloca i32, align 4
  %9 = alloca i32, align 4
  store ptr %0, ptr %5, align 8, !tbaa !18
  store ptr %1, ptr %6, align 8, !tbaa !33
  store ptr %2, ptr %7, align 8, !tbaa !33
  call void @llvm.lifetime.start.p0(i64 4, ptr %8) #8
  store i32 0, ptr %8, align 4, !tbaa !3
  %10 = call i32 @ERR_set_mark()
  %11 = load ptr, ptr %5, align 8, !tbaa !18
  %12 = load ptr, ptr %6, align 8, !tbaa !33
  %13 = load ptr, ptr %7, align 8, !tbaa !33
  %14 = load ptr, ptr %7, align 8, !tbaa !33
  %15 = call i64 @strlen(ptr noundef %14) #9
  %16 = add i64 %15, 1
  %17 = call i32 @evp_pkey_ctx_store_cached_data(ptr noundef %11, i32 noundef -1, i32 noundef -1, i32 noundef -1, ptr noundef %12, ptr noundef %13, i64 noundef %16)
  store i32 %17, ptr %8, align 4, !tbaa !3
  %18 = load i32, ptr %8, align 4, !tbaa !3
  %19 = icmp eq i32 %18, -2
  br i1 %19, label %20, label %22

20:                                               ; preds = %3
  %21 = call i32 @ERR_pop_to_mark()
  br label %34

22:                                               ; preds = %3
  %23 = call i32 @ERR_clear_last_mark()
  %24 = load i32, ptr %8, align 4, !tbaa !3
  %25 = icmp slt i32 %24, 1
  br i1 %25, label %31, label %26

26:                                               ; preds = %22
  %27 = load ptr, ptr %5, align 8, !tbaa !18
  %28 = getelementptr inbounds nuw %struct.evp_pkey_ctx_st, ptr %27, i32 0, i32 0
  %29 = load i32, ptr %28, align 8, !tbaa !20
  %30 = icmp eq i32 %29, 0
  br i1 %30, label %31, label %33

31:                                               ; preds = %26, %22
  %32 = load i32, ptr %8, align 4, !tbaa !3
  store i32 %32, ptr %4, align 4
  store i32 1, ptr %9, align 4
  br label %39

33:                                               ; preds = %26
  br label %34

34:                                               ; preds = %33, %20
  %35 = load ptr, ptr %5, align 8, !tbaa !18
  %36 = load ptr, ptr %6, align 8, !tbaa !33
  %37 = load ptr, ptr %7, align 8, !tbaa !33
  %38 = call i32 @evp_pkey_ctx_ctrl_str_int(ptr noundef %35, ptr noundef %36, ptr noundef %37)
  store i32 %38, ptr %4, align 4
  store i32 1, ptr %9, align 4
  br label %39

39:                                               ; preds = %34, %31
  call void @llvm.lifetime.end.p0(i64 4, ptr %8) #8
  %40 = load i32, ptr %4, align 4
  ret i32 %40
}