; Function Attrs: nounwind uwtable
define i32 @EVP_PKEY_CTX_ctrl_str(ptr noundef %0, ptr noundef %1, ptr noundef %2) local_unnamed_addr #0 {
  %4 = tail call i32 @ERR_set_mark() #10
  %5 = tail call i64 @strlen(ptr noundef nonnull dereferenceable(1) %2) #11
  %6 = add i64 %5, 1
  %7 = tail call fastcc i32 @evp_pkey_ctx_store_cached_data(ptr noundef %0, i32 noundef -1, i32 noundef -1, i32 noundef -1, ptr noundef %1, ptr noundef nonnull %2, i64 noundef %6)
  %8 = icmp eq i32 %7, -2
  br i1 %8, label %9, label %11

9:                                                ; preds = %3
  %10 = tail call i32 @ERR_pop_to_mark() #10
  br label %17

11:                                               ; preds = %3
  %12 = tail call i32 @ERR_clear_last_mark() #10
  %13 = icmp slt i32 %7, 1
  br i1 %13, label %19, label %14

14:                                               ; preds = %11
  %15 = load i32, ptr %0, align 8, !tbaa !15
  %16 = icmp eq i32 %15, 0
  br i1 %16, label %19, label %17

17:                                               ; preds = %14, %9
  %18 = tail call fastcc i32 @evp_pkey_ctx_ctrl_str_int(ptr noundef %0, ptr noundef %1, ptr noundef nonnull %2)
  br label %19

19:                                               ; preds = %11, %14, %17
  %.0 = phi i32 [ %18, %17 ], [ 1, %14 ], [ %7, %11 ]
  ret i32 %.0
}